; Function Attrs: nounwind uwtable
define void @Gia_ManSuperCollectXor_rec(ptr noundef readonly captures(none) %0, ptr noundef %1, i32 noundef %2) local_unnamed_addr #0 {
  %4 = getelementptr i8, ptr %0, i64 32
  %.val2241 = load i64, ptr %1, align 4
  %5 = and i64 %.val2241, 2147483648
  %.not.i.i42 = icmp ne i64 %5, 0
  %6 = and i64 %.val2241, 536870911
  %7 = icmp eq i64 %6, 536870911
  %narrow.i.not.i43 = or i1 %.not.i.i42, %7
  br i1 %narrow.i.not.i43, label %Gia_ObjIsXor.exit.thread, label %Gia_ObjIsXor.exit.lr.ph

Gia_ObjIsXor.exit.lr.ph:                          ; preds = %3
  %.not21 = icmp eq i32 %2, 0
  %8 = getelementptr i8, ptr %0, i64 144
  %9 = getelementptr inbounds nuw i8, ptr %0, i64 960
  br label %Gia_ObjIsXor.exit

Gia_ObjIsXor.exit:                                ; preds = %Gia_ObjIsXor.exit.lr.ph, %tailrecurse
  %10 = phi i64 [ %6, %Gia_ObjIsXor.exit.lr.ph ], [ %102, %tailrecurse ]
  %.val2245 = phi i64 [ %.val2241, %Gia_ObjIsXor.exit.lr.ph ], [ %.val22, %tailrecurse ]
  %.tr3944 = phi ptr [ %1, %Gia_ObjIsXor.exit.lr.ph ], [ %100, %tailrecurse ]
  %11 = trunc i64 %.val2245 to i32
  %12 = and i32 %11, 536870911
  %13 = lshr i64 %.val2245, 32
  %14 = trunc nuw i64 %13 to i32
  %15 = and i32 %14, 536870911
  %.not = icmp samesign ult i32 %12, %15
  br i1 %.not, label %16, label %Gia_ObjIsXor.exit.thread

16:                                               ; preds = %Gia_ObjIsXor.exit
  %.val25.pre = load ptr, ptr %4, align 8, !tbaa !16
  %.val26.pre = load ptr, ptr %8, align 8, !tbaa !35
  %.pre = ptrtoint ptr %.tr3944 to i64
  %.pre56 = ptrtoint ptr %.val25.pre to i64
  %.pre58 = sub i64 %.pre, %.pre56
  %.pre60 = sdiv exact i64 %.pre58, 12
  %.pre62 = shl i64 %.pre60, 32
  %.pre63 = ashr exact i64 %.pre62, 30
  br i1 %.not21, label %._crit_edge, label %17

17:                                               ; preds = %16
  %18 = getelementptr inbounds i8, ptr %.val26.pre, i64 %.pre63
  %19 = load i32, ptr %18, align 4, !tbaa !11
  %20 = icmp sgt i32 %19, 1
  br i1 %20, label %Gia_ObjIsXor.exit.thread, label %._crit_edge

._crit_edge:                                      ; preds = %16, %17
  %21 = getelementptr inbounds i8, ptr %.val26.pre, i64 %.pre63
  %22 = load i32, ptr %21, align 4, !tbaa !11
  %23 = icmp sgt i32 %22, 2
  br i1 %23, label %Gia_ObjIsXor.exit.thread, label %24

24:                                               ; preds = %._crit_edge
  %25 = icmp eq i32 %22, 2
  br i1 %25, label %26, label %47

26:                                               ; preds = %24
  %27 = sub nsw i64 0, %10
  %28 = getelementptr inbounds %struct.Gia_Obj_t_, ptr %.tr3944, i64 %27
  %29 = ptrtoint ptr %28 to i64
  %30 = sub i64 %29, %.pre56
  %31 = sdiv exact i64 %30, 12
  %sext.i36 = shl i64 %31, 32
  %32 = ashr exact i64 %sext.i36, 30
  %33 = getelementptr inbounds i8, ptr %.val26.pre, i64 %32
  %34 = load i32, ptr %33, align 4, !tbaa !11
  %35 = icmp eq i32 %34, 1
  br i1 %35, label %Gia_ObjIsXor.exit.thread, label %36

36:                                               ; preds = %26
  %37 = and i64 %13, 536870911
  %38 = sub nsw i64 0, %37
  %39 = getelementptr inbounds %struct.Gia_Obj_t_, ptr %.tr3944, i64 %38
  %40 = ptrtoint ptr %39 to i64
  %41 = sub i64 %40, %.pre56
  %42 = sdiv exact i64 %41, 12
  %sext.i37 = shl i64 %42, 32
  %43 = ashr exact i64 %sext.i37, 30
  %44 = getelementptr inbounds i8, ptr %.val26.pre, i64 %43
  %45 = load i32, ptr %44, align 4, !tbaa !11
  %46 = icmp eq i32 %45, 1
  br i1 %46, label %Gia_ObjIsXor.exit.thread, label %47

47:                                               ; preds = %36, %24
  %48 = load ptr, ptr %9, align 8, !tbaa !36
  %49 = getelementptr i8, ptr %48, i64 4
  %.val = load i32, ptr %49, align 4, !tbaa !3
  %50 = icmp sgt i32 %.val, 50
  br i1 %50, label %Gia_ObjIsXor.exit.thread, label %tailrecurse

Gia_ObjIsXor.exit.thread:                         ; preds = %Gia_ObjIsXor.exit, %17, %._crit_edge, %26, %36, %47, %tailrecurse, %3
  %.tr39.lcssa = phi ptr [ %1, %3 ], [ %100, %tailrecurse ], [ %.tr3944, %47 ], [ %.tr3944, %36 ], [ %.tr3944, %26 ], [ %.tr3944, %._crit_edge ], [ %.tr3944, %17 ], [ %.tr3944, %Gia_ObjIsXor.exit ]
  %51 = getelementptr inbounds nuw i8, ptr %0, i64 960
  %52 = load ptr, ptr %51, align 8, !tbaa !36
  %.val33 = load ptr, ptr %4, align 8, !tbaa !16
  %53 = getelementptr inbounds nuw i8, ptr %52, i64 4
  %54 = load i32, ptr %53, align 4, !tbaa !3
  %55 = load i32, ptr %52, align 8, !tbaa !14
  %56 = icmp eq i32 %54, %55
  br i1 %56, label %57, label %.Vec_IntGrow.exit10_crit_edge.i

.Vec_IntGrow.exit10_crit_edge.i:                  ; preds = %Gia_ObjIsXor.exit.thread
  %.phi.trans.insert.i = getelementptr inbounds nuw i8, ptr %52, i64 8
  %.pre.i = load ptr, ptr %.phi.trans.insert.i, align 8, !tbaa !10
  br label %Vec_IntPush.exit

57:                                               ; preds = %Gia_ObjIsXor.exit.thread
  %58 = icmp slt i32 %54, 16
  br i1 %58, label %59, label %67

59:                                               ; preds = %57
  %60 = getelementptr inbounds nuw i8, ptr %52, i64 8
  %61 = load ptr, ptr %60, align 8, !tbaa !10
  %.not9.i.i = icmp eq ptr %61, null
  br i1 %.not9.i.i, label %64, label %62

62:                                               ; preds = %59
  %63 = tail call dereferenceable_or_null(64) ptr @realloc(ptr noundef nonnull %61, i64 noundef 64) #25
  br label %Vec_IntGrow.exit.i

64:                                               ; preds = %59
  %65 = tail call noalias dereferenceable_or_null(64) ptr @malloc(i64 noundef 64) #26
  br label %Vec_IntGrow.exit.i

Vec_IntGrow.exit.i:                               ; preds = %64, %62
  %66 = phi ptr [ %63, %62 ], [ %65, %64 ]
  store ptr %66, ptr %60, align 8, !tbaa !10
  store i32 16, ptr %52, align 8, !tbaa !14
  br label %Vec_IntPush.exit

67:                                               ; preds = %57
  %68 = shl nuw nsw i32 %54, 1
  %69 = getelementptr inbounds nuw i8, ptr %52, i64 8
  %70 = load ptr, ptr %69, align 8, !tbaa !10
  %.not9.i9.i = icmp eq ptr %70, null
  %71 = zext nneg i32 %68 to i64
  %72 = shl nuw nsw i64 %71, 2
  br i1 %.not9.i9.i, label %75, label %73

73:                                               ; preds = %67
  %74 = tail call ptr @realloc(ptr noundef nonnull %70, i64 noundef %72) #25
  br label %77

75:                                               ; preds = %67
  %76 = tail call noalias ptr @malloc(i64 noundef %72) #26
  br label %77

77:                                               ; preds = %75, %73
  %78 = phi ptr [ %74, %73 ], [ %76, %75 ]
  store ptr %78, ptr %69, align 8, !tbaa !10
  store i32 %68, ptr %52, align 8, !tbaa !14
  br label %Vec_IntPush.exit

Vec_IntPush.exit:                                 ; preds = %.Vec_IntGrow.exit10_crit_edge.i, %Vec_IntGrow.exit.i, %77
  %79 = phi ptr [ %.pre.i, %.Vec_IntGrow.exit10_crit_edge.i ], [ %78, %77 ], [ %66, %Vec_IntGrow.exit.i ]
  %80 = ptrtoint ptr %.tr39.lcssa to i64
  %81 = and i64 %80, -2
  %82 = ptrtoint ptr %.val33 to i64
  %83 = sub i64 %81, %82
  %84 = sdiv exact i64 %83, 12
  %85 = trunc i64 %84 to i32
  %86 = shl nsw i32 %85, 1
  %87 = trunc i64 %80 to i32
  %88 = and i32 %87, 1
  %89 = or disjoint i32 %86, %88
  %90 = load i32, ptr %53, align 4, !tbaa !3
  %91 = add nsw i32 %90, 1
  store i32 %91, ptr %53, align 4, !tbaa !3
  %92 = sext i32 %90 to i64
  %93 = getelementptr inbounds i32, ptr %79, i64 %92
  store i32 %89, ptr %93, align 4, !tbaa !11
  ret void

tailrecurse:                                      ; preds = %47
  %94 = sub nsw i64 0, %10
  %95 = getelementptr inbounds %struct.Gia_Obj_t_, ptr %.tr3944, i64 %94
  tail call void @Gia_ManSuperCollectXor_rec(ptr noundef nonnull %0, ptr noundef nonnull %95, i32 noundef %2)
  %96 = load i64, ptr %.tr3944, align 4
  %97 = lshr i64 %96, 32
  %98 = and i64 %97, 536870911
  %99 = sub nsw i64 0, %98
  %100 = getelementptr inbounds %struct.Gia_Obj_t_, ptr %.tr3944, i64 %99
  %.val22 = load i64, ptr %100, align 4
  %101 = and i64 %.val22, 2147483648
  %.not.i.i = icmp ne i64 %101, 0
  %102 = and i64 %.val22, 536870911
  %103 = icmp eq i64 %102, 536870911
  %narrow.i.not.i = or i1 %.not.i.i, %103
  br i1 %narrow.i.not.i, label %Gia_ObjIsXor.exit.thread, label %Gia_ObjIsXor.exit
}